target datalayout = "e-m:e-p270:32:32-p271:32:32-p272:64:64-i64:64-i128:128-f80:128-n8:16:32:64-S128"
target triple = "x86_64-pc-linux-gnu"

@.str = private unnamed_addr constant [31 x i8] c"../openssl/crypto/bn/bn_rand.c\00", align 1
@__func__.bnrand = private unnamed_addr constant [7 x i8] c"bnrand\00", align 1

; Function Attrs: nounwind uwtable
define internal i32 @bnrand(i32 noundef %0, ptr noundef %1, i32 noundef %2, i32 noundef %3, i32 noundef %4, i32 noundef %5, ptr noundef %6) #0 {
  %8 = alloca i32, align 4
  %9 = alloca i32, align 4
  %10 = alloca ptr, align 8
  %11 = alloca i32, align 4
  %12 = alloca i32, align 4
  %13 = alloca i32, align 4
  %14 = alloca i32, align 4
  %15 = alloca ptr, align 8
  %16 = alloca ptr, align 8
  %17 = alloca i32, align 4
  %18 = alloca i32, align 4
  %19 = alloca i32, align 4
  %20 = alloca i32, align 4
  %21 = alloca i32, align 4
  %22 = alloca ptr, align 8
  %23 = alloca i32, align 4
  %24 = alloca i32, align 4
  %25 = alloca i8, align 1
  store i32 %0, ptr %9, align 4, !tbaa !8
  store ptr %1, ptr %10, align 8, !tbaa !3
  store i32 %2, ptr %11, align 4, !tbaa !8
  store i32 %3, ptr %12, align 4, !tbaa !8
  store i32 %4, ptr %13, align 4, !tbaa !8
  store i32 %5, ptr %14, align 4, !tbaa !8
  store ptr %6, ptr %15, align 8, !tbaa !10
  call void @llvm.lifetime.start.p0(i64 8, ptr %16) #4
  store ptr null, ptr %16, align 8, !tbaa !12
  call void @llvm.lifetime.start.p0(i64 4, ptr %17) #4
  call void @llvm.lifetime.start.p0(i64 4, ptr %18) #4
  store i32 0, ptr %18, align 4, !tbaa !8
  call void @llvm.lifetime.start.p0(i64 4, ptr %19) #4
  call void @llvm.lifetime.start.p0(i64 4, ptr %20) #4
  call void @llvm.lifetime.start.p0(i64 4, ptr %21) #4
  call void @llvm.lifetime.start.p0(i64 8, ptr %22) #4
  %26 = load ptr, ptr %15, align 8, !tbaa !10
  %27 = call ptr @ossl_bn_get_libctx(ptr noundef %26)
  store ptr %27, ptr %22, align 8, !tbaa !14
  %28 = load i32, ptr %11, align 4, !tbaa !8
  %29 = icmp eq i32 %28, 0
  br i1 %29, label %30, label %39

30:                                               ; preds = %7
  %31 = load i32, ptr %12, align 4, !tbaa !8
  %32 = icmp ne i32 %31, -1
  br i1 %32, label %36, label %33

33:                                               ; preds = %30
  %34 = load i32, ptr %13, align 4, !tbaa !8
  %35 = icmp ne i32 %34, 0
  br i1 %35, label %36, label %37

36:                                               ; preds = %33, %30
  br label %220

37:                                               ; preds = %33
  %38 = load ptr, ptr %10, align 8, !tbaa !3
  call void @BN_zero_ex(ptr noundef %38)
  store i32 1, ptr %8, align 4
  store i32 1, ptr %23, align 4
  br label %221

39:                                               ; preds = %7
  %40 = load i32, ptr %11, align 4, !tbaa !8
  %41 = icmp slt i32 %40, 0
  br i1 %41, label %48, label %42

42:                                               ; preds = %39
  %43 = load i32, ptr %11, align 4, !tbaa !8
  %44 = icmp eq i32 %43, 1
  br i1 %44, label %45, label %49

45:                                               ; preds = %42
  %46 = load i32, ptr %12, align 4, !tbaa !8
  %47 = icmp sgt i32 %46, 0
  br i1 %47, label %48, label %49

48:                                               ; preds = %45, %39
  br label %220

49:                                               ; preds = %45, %42
  %50 = load i32, ptr %11, align 4, !tbaa !8
  %51 = add nsw i32 %50, 7
  %52 = sdiv i32 %51, 8
  store i32 %52, ptr %20, align 4, !tbaa !8
  %53 = load i32, ptr %11, align 4, !tbaa !8
  %54 = sub nsw i32 %53, 1
  %55 = srem i32 %54, 8
  store i32 %55, ptr %19, align 4, !tbaa !8
  %56 = load i32, ptr %19, align 4, !tbaa !8
  %57 = add nsw i32 %56, 1
  %58 = shl i32 255, %57
  store i32 %58, ptr %21, align 4, !tbaa !8
  %59 = load i32, ptr %20, align 4, !tbaa !8
  %60 = sext i32 %59 to i64
  %61 = call noalias ptr @CRYPTO_malloc(i64 noundef %60, ptr noundef @.str, i32 noundef 43)
  store ptr %61, ptr %16, align 8, !tbaa !12
  %62 = load ptr, ptr %16, align 8, !tbaa !12
  %63 = icmp eq ptr %62, null
  br i1 %63, label %64, label %65

64:                                               ; preds = %49
  br label %215

65:                                               ; preds = %49
  %66 = load i32, ptr %9, align 4, !tbaa !8
  %67 = icmp eq i32 %66, 0
  br i1 %67, label %68, label %75

68:                                               ; preds = %65
  %69 = load ptr, ptr %22, align 8, !tbaa !14
  %70 = load ptr, ptr %16, align 8, !tbaa !12
  %71 = load i32, ptr %20, align 4, !tbaa !8
  %72 = sext i32 %71 to i64
  %73 = load i32, ptr %14, align 4, !tbaa !8
  %74 = call i32 @RAND_bytes_ex(ptr noundef %69, ptr noundef %70, i64 noundef %72, i32 noundef %73)
  br label %82

75:                                               ; preds = %65
  %76 = load ptr, ptr %22, align 8, !tbaa !14
  %77 = load ptr, ptr %16, align 8, !tbaa !12
  %78 = load i32, ptr %20, align 4, !tbaa !8
  %79 = sext i32 %78 to i64
  %80 = load i32, ptr %14, align 4, !tbaa !8
  %81 = call i32 @RAND_priv_bytes_ex(ptr noundef %76, ptr noundef %77, i64 noundef %79, i32 noundef %80)
  br label %82

82:                                               ; preds = %75, %68
  %83 = phi i32 [ %74, %68 ], [ %81, %75 ]
  store i32 %83, ptr %17, align 4, !tbaa !8
  %84 = load i32, ptr %17, align 4, !tbaa !8
  %85 = icmp sle i32 %84, 0
  br i1 %85, label %86, label %87

86:                                               ; preds = %82
  br label %215

87:                                               ; preds = %82
  %88 = load i32, ptr %9, align 4, !tbaa !8
  %89 = icmp eq i32 %88, 1
  br i1 %89, label %90, label %147

90:                                               ; preds = %87
  call void @llvm.lifetime.start.p0(i64 4, ptr %24) #4
  call void @llvm.lifetime.start.p0(i64 1, ptr %25) #4
  store i32 0, ptr %24, align 4, !tbaa !8
  br label %91

91:                                               ; preds = %140, %90
  %92 = load i32, ptr %24, align 4, !tbaa !8
  %93 = load i32, ptr %20, align 4, !tbaa !8
  %94 = icmp slt i32 %92, %93
  br i1 %94, label %95, label %143

95:                                               ; preds = %91
  %96 = load ptr, ptr %22, align 8, !tbaa !14
  %97 = load i32, ptr %14, align 4, !tbaa !8
  %98 = call i32 @RAND_bytes_ex(ptr noundef %96, ptr noundef %25, i64 noundef 1, i32 noundef %97)
  %99 = icmp sle i32 %98, 0
  br i1 %99, label %100, label %101

100:                                              ; preds = %95
  store i32 3, ptr %23, align 4
  br label %144

101:                                              ; preds = %95
  %102 = load i8, ptr %25, align 1, !tbaa !16
  %103 = zext i8 %102 to i32
  %104 = icmp sge i32 %103, 128
  br i1 %104, label %105, label %119

105:                                              ; preds = %101
  %106 = load i32, ptr %24, align 4, !tbaa !8
  %107 = icmp sgt i32 %106, 0
  br i1 %107, label %108, label %119

108:                                              ; preds = %105
  %109 = load ptr, ptr %16, align 8, !tbaa !12
  %110 = load i32, ptr %24, align 4, !tbaa !8
  %111 = sub nsw i32 %110, 1
  %112 = sext i32 %111 to i64
  %113 = getelementptr inbounds i8, ptr %109, i64 %112
  %114 = load i8, ptr %113, align 1, !tbaa !16
  %115 = load ptr, ptr %16, align 8, !tbaa !12
  %116 = load i32, ptr %24, align 4, !tbaa !8
  %117 = sext i32 %116 to i64
  %118 = getelementptr inbounds i8, ptr %115, i64 %117
  store i8 %114, ptr %118, align 1, !tbaa !16
  br label %139

119:                                              ; preds = %105, %101
  %120 = load i8, ptr %25, align 1, !tbaa !16
  %121 = zext i8 %120 to i32
  %122 = icmp slt i32 %121, 42
  br i1 %122, label %123, label %128

123:                                              ; preds = %119
  %124 = load ptr, ptr %16, align 8, !tbaa !12
  %125 = load i32, ptr %24, align 4, !tbaa !8
  %126 = sext i32 %125 to i64
  %127 = getelementptr inbounds i8, ptr %124, i64 %126
  store i8 0, ptr %127, align 1, !tbaa !16
  br label %138

128:                                              ; preds = %119
  %129 = load i8, ptr %25, align 1, !tbaa !16
  %130 = zext i8 %129 to i32
  %131 = icmp slt i32 %130, 84
  br i1 %131, label %132, label %137

132:                                              ; preds = %128
  %133 = load ptr, ptr %16, align 8, !tbaa !12
  %134 = load i32, ptr %24, align 4, !tbaa !8
  %135 = sext i32 %134 to i64
  %136 = getelementptr inbounds i8, ptr %133, i64 %135
  store i8 -1, ptr %136, align 1, !tbaa !16
  br label %137

137:                                              ; preds = %132, %128
  br label %138

138:                                              ; preds = %137, %123
  br label %139

139:                                              ; preds = %138, %108
  br label %140

140:                                              ; preds = %139
  %141 = load i32, ptr %24, align 4, !tbaa !8
  %142 = add nsw i32 %141, 1
  store i32 %142, ptr %24, align 4, !tbaa !8
  br label %91, !llvm.loop !17

143:                                              ; preds = %91
  store i32 0, ptr %23, align 4
  br label %144

144:                                              ; preds = %100, %143
  call void @llvm.lifetime.end.p0(i64 1, ptr %25) #4
  call void @llvm.lifetime.end.p0(i64 4, ptr %24) #4
  %145 = load i32, ptr %23, align 4
  switch i32 %145, label %221 [
    i32 0, label %146
    i32 3, label %215
  ]

146:                                              ; preds = %144
  br label %147

147:                                              ; preds = %146, %87
  %148 = load i32, ptr %12, align 4, !tbaa !8
  %149 = icmp sge i32 %148, 0
  br i1 %149, label %150, label %186

150:                                              ; preds = %147
  %151 = load i32, ptr %12, align 4, !tbaa !8
  %152 = icmp ne i32 %151, 0
  br i1 %152, label %153, label %176

153:                                              ; preds = %150
  %154 = load i32, ptr %19, align 4, !tbaa !8
  %155 = icmp eq i32 %154, 0
  br i1 %155, label %156, label %165

156:                                              ; preds = %153
  %157 = load ptr, ptr %16, align 8, !tbaa !12
  %158 = getelementptr inbounds i8, ptr %157, i64 0
  store i8 1, ptr %158, align 1, !tbaa !16
  %159 = load ptr, ptr %16, align 8, !tbaa !12
  %160 = getelementptr inbounds i8, ptr %159, i64 1
  %161 = load i8, ptr %160, align 1, !tbaa !16
  %162 = zext i8 %161 to i32
  %163 = or i32 %162, 128
  %164 = trunc i32 %163 to i8
  store i8 %164, ptr %160, align 1, !tbaa !16
  br label %175

165:                                              ; preds = %153
  %166 = load i32, ptr %19, align 4, !tbaa !8
  %167 = sub nsw i32 %166, 1
  %168 = shl i32 3, %167
  %169 = load ptr, ptr %16, align 8, !tbaa !12
  %170 = getelementptr inbounds i8, ptr %169, i64 0
  %171 = load i8, ptr %170, align 1, !tbaa !16
  %172 = zext i8 %171 to i32
  %173 = or i32 %172, %168
  %174 = trunc i32 %173 to i8
  store i8 %174, ptr %170, align 1, !tbaa !16
  br label %175

175:                                              ; preds = %165, %156
  br label %185

176:                                              ; preds = %150
  %177 = load i32, ptr %19, align 4, !tbaa !8
  %178 = shl i32 1, %177
  %179 = load ptr, ptr %16, align 8, !tbaa !12
  %180 = getelementptr inbounds i8, ptr %179, i64 0
  %181 = load i8, ptr %180, align 1, !tbaa !16
  %182 = zext i8 %181 to i32
  %183 = or i32 %182, %178
  %184 = trunc i32 %183 to i8
  store i8 %184, ptr %180, align 1, !tbaa !16
  br label %185

185:                                              ; preds = %176, %175
  br label %186

186:                                              ; preds = %185, %147
  %187 = load i32, ptr %21, align 4, !tbaa !8
  %188 = xor i32 %187, -1
  %189 = load ptr, ptr %16, align 8, !tbaa !12
  %190 = getelementptr inbounds i8, ptr %189, i64 0
  %191 = load i8, ptr %190, align 1, !tbaa !16
  %192 = zext i8 %191 to i32
  %193 = and i32 %192, %188
  %194 = trunc i32 %193 to i8
  store i8 %194, ptr %190, align 1, !tbaa !16
  %195 = load i32, ptr %13, align 4, !tbaa !8
  %196 = icmp ne i32 %195, 0
  br i1 %196, label %197, label %207

197:                                              ; preds = %186
  %198 = load ptr, ptr %16, align 8, !tbaa !12
  %199 = load i32, ptr %20, align 4, !tbaa !8
  %200 = sub nsw i32 %199, 1
  %201 = sext i32 %200 to i64
  %202 = getelementptr inbounds i8, ptr %198, i64 %201
  %203 = load i8, ptr %202, align 1, !tbaa !16
  %204 = zext i8 %203 to i32
  %205 = or i32 %204, 1
  %206 = trunc i32 %205 to i8
  store i8 %206, ptr %202, align 1, !tbaa !16
  br label %207

207:                                              ; preds = %197, %186
  %208 = load ptr, ptr %16, align 8, !tbaa !12
  %209 = load i32, ptr %20, align 4, !tbaa !8
  %210 = load ptr, ptr %10, align 8, !tbaa !3
  %211 = call ptr @BN_bin2bn(ptr noundef %208, i32 noundef %209, ptr noundef %210)
  %212 = icmp ne ptr %211, null
  br i1 %212, label %214, label %213

213:                                              ; preds = %207
  br label %215

214:                                              ; preds = %207
  store i32 1, ptr %18, align 4, !tbaa !8
  br label %215

215:                                              ; preds = %214, %144, %213, %86, %64
  %216 = load ptr, ptr %16, align 8, !tbaa !12
  %217 = load i32, ptr %20, align 4, !tbaa !8
  %218 = sext i32 %217 to i64
  call void @CRYPTO_clear_free(ptr noundef %216, i64 noundef %218, ptr noundef @.str, i32 noundef 91)
  %219 = load i32, ptr %18, align 4, !tbaa !8
  store i32 %219, ptr %8, align 4
  store i32 1, ptr %23, align 4
  br label %221

220:                                              ; preds = %48, %36
  call void @ERR_new()
  call void @ERR_set_debug(ptr noundef @.str, i32 noundef 96, ptr noundef @__func__.bnrand)
  call void (i32, i32, ptr, ...) @ERR_set_error(i32 noundef 3, i32 noundef 118, ptr noundef null)
  store i32 0, ptr %8, align 4
  store i32 1, ptr %23, align 4
  br label %221

221:                                              ; preds = %220, %215, %144, %37
  call void @llvm.lifetime.end.p0(i64 8, ptr %22) #4
  call void @llvm.lifetime.end.p0(i64 4, ptr %21) #4
  call void @llvm.lifetime.end.p0(i64 4, ptr %20) #4
  call void @llvm.lifetime.end.p0(i64 4, ptr %19) #4
  call void @llvm.lifetime.end.p0(i64 4, ptr %18) #4
  call void @llvm.lifetime.end.p0(i64 4, ptr %17) #4
  call void @llvm.lifetime.end.p0(i64 8, ptr %16) #4
  %222 = load i32, ptr %8, align 4
  ret i32 %222
}