; Function Attrs: nounwind uwtable
define internal fastcc range(i32 0, 2) i32 @bnrand(i32 noundef range(i32 0, 3) %0, ptr noundef %1, i32 noundef %2, i32 noundef %3, i32 noundef %4, i32 noundef %5, ptr noundef %6) unnamed_addr #0 {
  %8 = alloca i8, align 1
  %9 = tail call ptr @ossl_bn_get_libctx(ptr noundef %6) #5
  %10 = icmp eq i32 %2, 0
  br i1 %10, label %11, label %15

11:                                               ; preds = %7
  %12 = icmp ne i32 %3, -1
  %13 = icmp ne i32 %4, 0
  %or.cond = or i1 %12, %13
  br i1 %or.cond, label %90, label %14

14:                                               ; preds = %11
  tail call void @BN_zero_ex(ptr noundef %1) #5
  br label %91

15:                                               ; preds = %7
  %16 = icmp slt i32 %2, 0
  br i1 %16, label %90, label %17

17:                                               ; preds = %15
  %18 = icmp eq i32 %2, 1
  %19 = icmp sgt i32 %3, 0
  %or.cond3 = and i1 %18, %19
  br i1 %or.cond3, label %90, label %20

20:                                               ; preds = %17
  %21 = add nuw nsw i32 %2, 7
  %22 = lshr i32 %21, 3
  %23 = and i32 %21, 7
  %24 = shl nuw nsw i32 510, %23
  %25 = zext nneg i32 %22 to i64
  %26 = tail call noalias ptr @CRYPTO_malloc(i64 noundef %25, ptr noundef nonnull @.str, i32 noundef 43) #5
  %27 = icmp eq ptr %26, null
  br i1 %27, label %89, label %28

28:                                               ; preds = %20
  %29 = icmp eq i32 %0, 0
  br i1 %29, label %.thread, label %30

30:                                               ; preds = %28
  %31 = tail call i32 @RAND_priv_bytes_ex(ptr noundef %9, ptr noundef nonnull %26, i64 noundef %25, i32 noundef %5) #5
  %32 = icmp slt i32 %31, 1
  br i1 %32, label %89, label %35

.thread:                                          ; preds = %28
  %33 = tail call i32 @RAND_bytes_ex(ptr noundef %9, ptr noundef nonnull %26, i64 noundef %25, i32 noundef %5) #5
  %34 = icmp slt i32 %33, 1
  br i1 %34, label %89, label %.thread74

35:                                               ; preds = %30
  %36 = icmp eq i32 %0, 1
  br i1 %36, label %.lr.ph.preheader, label %.thread74

.lr.ph.preheader:                                 ; preds = %35
  call void @llvm.lifetime.start.p0(i64 1, ptr nonnull %8) #5
  %wide.trip.count = zext nneg i32 %22 to i64
  br label %.lr.ph

.thread75:                                        ; preds = %55
  call void @llvm.lifetime.end.p0(i64 1, ptr nonnull %8) #5
  br label %.thread74

.lr.ph:                                           ; preds = %.lr.ph.preheader, %55
  %indvars.iv = phi i64 [ 0, %.lr.ph.preheader ], [ %indvars.iv.next, %55 ]
  %37 = call i32 @RAND_bytes_ex(ptr noundef %9, ptr noundef nonnull %8, i64 noundef 1, i32 noundef %5) #5
  %38 = icmp slt i32 %37, 1
  br i1 %38, label %56, label %39

39:                                               ; preds = %.lr.ph
  %40 = load i8, ptr %8, align 1, !tbaa !3
  %41 = icmp slt i8 %40, 0
  %42 = icmp ne i64 %indvars.iv, 0
  %or.cond5 = and i1 %42, %41
  br i1 %or.cond5, label %43, label %47

43:                                               ; preds = %39
  %44 = getelementptr i8, ptr %26, i64 %indvars.iv
  %45 = getelementptr i8, ptr %44, i64 -1
  %46 = load i8, ptr %45, align 1, !tbaa !3
  store i8 %46, ptr %44, align 1, !tbaa !3
  br label %55

47:                                               ; preds = %39
  %48 = icmp ult i8 %40, 42
  br i1 %48, label %49, label %51

49:                                               ; preds = %47
  %50 = getelementptr inbounds nuw i8, ptr %26, i64 %indvars.iv
  store i8 0, ptr %50, align 1, !tbaa !3
  br label %55

51:                                               ; preds = %47
  %52 = icmp ult i8 %40, 84
  br i1 %52, label %53, label %55

53:                                               ; preds = %51
  %54 = getelementptr inbounds nuw i8, ptr %26, i64 %indvars.iv
  store i8 -1, ptr %54, align 1, !tbaa !3
  br label %55

55:                                               ; preds = %43, %51, %53, %49
  %indvars.iv.next = add nuw nsw i64 %indvars.iv, 1
  %exitcond.not = icmp eq i64 %indvars.iv.next, %wide.trip.count
  br i1 %exitcond.not, label %.thread75, label %.lr.ph, !llvm.loop !6

56:                                               ; preds = %.lr.ph
  call void @llvm.lifetime.end.p0(i64 1, ptr nonnull %8) #5
  br label %89

.thread74:                                        ; preds = %.thread, %.thread75, %35
  %57 = icmp sgt i32 %3, -1
  br i1 %57, label %58, label %.thread74._crit_edge

.thread74._crit_edge:                             ; preds = %.thread74
  %.pre = load i8, ptr %26, align 1, !tbaa !3
  br label %77

58:                                               ; preds = %.thread74
  %.not = icmp eq i32 %3, 0
  br i1 %.not, label %72, label %59

59:                                               ; preds = %58
  %60 = and i32 %2, 7
  %61 = icmp eq i32 %60, 1
  br i1 %61, label %62, label %66

62:                                               ; preds = %59
  %63 = getelementptr inbounds nuw i8, ptr %26, i64 1
  %64 = load i8, ptr %63, align 1, !tbaa !3
  %65 = or i8 %64, -128
  store i8 %65, ptr %63, align 1, !tbaa !3
  br label %77

66:                                               ; preds = %59
  %67 = add nsw i32 %23, -1
  %68 = shl nuw nsw i32 3, %67
  %69 = load i8, ptr %26, align 1, !tbaa !3
  %70 = trunc i32 %68 to i8
  %71 = or i8 %69, %70
  br label %77

72:                                               ; preds = %58
  %73 = shl nuw nsw i32 1, %23
  %74 = load i8, ptr %26, align 1, !tbaa !3
  %75 = trunc nuw i32 %73 to i8
  %76 = or i8 %74, %75
  br label %77

77:                                               ; preds = %.thread74._crit_edge, %72, %66, %62
  %78 = phi i8 [ %.pre, %.thread74._crit_edge ], [ %76, %72 ], [ %71, %66 ], [ 1, %62 ]
  %79 = trunc i32 %24 to i8
  %80 = xor i8 %79, -1
  %81 = and i8 %78, %80
  store i8 %81, ptr %26, align 1, !tbaa !3
  %.not72 = icmp eq i32 %4, 0
  br i1 %.not72, label %87, label %82

82:                                               ; preds = %77
  %83 = getelementptr i8, ptr %26, i64 %25
  %84 = getelementptr i8, ptr %83, i64 -1
  %85 = load i8, ptr %84, align 1, !tbaa !3
  %86 = or i8 %85, 1
  store i8 %86, ptr %84, align 1, !tbaa !3
  br label %87

87:                                               ; preds = %82, %77
  %88 = call ptr @BN_bin2bn(ptr noundef nonnull %26, i32 noundef %22, ptr noundef %1) #5
  %.not73 = icmp ne ptr %88, null
  %spec.select = zext i1 %.not73 to i32
  br label %89

89:                                               ; preds = %56, %.thread, %87, %30, %20
  %.066 = phi i32 [ 0, %20 ], [ 0, %30 ], [ 0, %56 ], [ %spec.select, %87 ], [ 0, %.thread ]
  call void @CRYPTO_clear_free(ptr noundef %26, i64 noundef %25, ptr noundef nonnull @.str, i32 noundef 91) #5
  br label %91

90:                                               ; preds = %15, %17, %11
  tail call void @ERR_new() #5
  tail call void @ERR_set_debug(ptr noundef nonnull @.str, i32 noundef 96, ptr noundef nonnull @__func__.bnrand) #5
  tail call void (i32, i32, ptr, ...) @ERR_set_error(i32 noundef 3, i32 noundef 118, ptr noundef null) #5
  br label %91

91:                                               ; preds = %90, %89, %14
  %.065 = phi i32 [ 0, %90 ], [ 1, %14 ], [ %.066, %89 ]
  ret i32 %.065
}